; Function Attrs: mustprogress uwtable
define hidden void @_ZN7nanogui6Screen8draw_allEv(ptr noundef nonnull align 8 dereferenceable(384) %0) unnamed_addr #3 align 2 {
  %2 = getelementptr inbounds i8, ptr %0, i64 349
  %3 = load i8, ptr %2, align 1
  %4 = and i8 %3, 1
  %.not = icmp eq i8 %4, 0
  br i1 %.not, label %15, label %5

5:                                                ; preds = %1
  store i8 0, ptr %2, align 1
  %6 = load ptr, ptr %0, align 8
  %7 = getelementptr inbounds i8, ptr %6, i64 136
  %8 = load ptr, ptr %7, align 8
  tail call void %8(ptr noundef nonnull align 8 dereferenceable(384) %0)
  %9 = load ptr, ptr %0, align 8
  %10 = getelementptr inbounds i8, ptr %9, i64 144
  %11 = load ptr, ptr %10, align 8
  tail call void %11(ptr noundef nonnull align 8 dereferenceable(384) %0)
  tail call void @_ZN7nanogui6Screen12draw_widgetsEv(ptr noundef nonnull align 8 dereferenceable(384) %0)
  %12 = load ptr, ptr %0, align 8
  %13 = getelementptr inbounds i8, ptr %12, i64 152
  %14 = load ptr, ptr %13, align 8
  tail call void %14(ptr noundef nonnull align 8 dereferenceable(384) %0)
  br label %15

15:                                               ; preds = %5, %1
  ret void
}